; Function Attrs: nounwind uwtable
define ptr @l_Array_mapMUnsafe_map___at_Lean_Elab_Term_CollectPatternVars_collect_processCtorApp___spec__2___boxed(ptr noundef %0, ptr noundef %1, ptr noundef %2, ptr noundef %3, ptr noundef %4, ptr noundef %5, ptr noundef %6, ptr noundef %7, ptr noundef %8, ptr noundef %9, ptr noundef %10) local_unnamed_addr #0 {
  %12 = getelementptr i8, ptr %0, i64 8
  %.val18 = load i64, ptr %12, align 8, !tbaa !4
  %13 = ptrtoint ptr %0 to i64
  %14 = and i64 %13, 1
  %.not = icmp eq i64 %14, 0
  br i1 %.not, label %15, label %lean_dec.exit15

15:                                               ; preds = %11
  %16 = load i32, ptr %0, align 4, !tbaa !8
  %17 = icmp sgt i32 %16, 1
  br i1 %17, label %18, label %20, !prof !15

18:                                               ; preds = %15
  %19 = add nsw i32 %16, -1
  store i32 %19, ptr %0, align 4, !tbaa !8
  br label %lean_dec.exit15

20:                                               ; preds = %15
  %.not.i = icmp eq i32 %16, 0
  br i1 %.not.i, label %lean_dec.exit15, label %21

21:                                               ; preds = %20
  tail call void @lean_dec_ref_cold(ptr noundef nonnull %0) #6
  br label %lean_dec.exit15

lean_dec.exit15:                                  ; preds = %21, %20, %18, %11
  %22 = getelementptr i8, ptr %1, i64 8
  %.val = load i64, ptr %22, align 8, !tbaa !4
  %23 = ptrtoint ptr %1 to i64
  %24 = and i64 %23, 1
  %.not19 = icmp eq i64 %24, 0
  br i1 %.not19, label %25, label %lean_dec.exit

25:                                               ; preds = %lean_dec.exit15
  %26 = load i32, ptr %1, align 4, !tbaa !8
  %27 = icmp sgt i32 %26, 1
  br i1 %27, label %28, label %30, !prof !15

28:                                               ; preds = %25
  %29 = add nsw i32 %26, -1
  store i32 %29, ptr %1, align 4, !tbaa !8
  br label %lean_dec.exit

30:                                               ; preds = %25
  %.not.i16 = icmp eq i32 %26, 0
  br i1 %.not.i16, label %lean_dec.exit, label %31

31:                                               ; preds = %30
  tail call void @lean_dec_ref_cold(ptr noundef nonnull %1) #6
  br label %lean_dec.exit

lean_dec.exit:                                    ; preds = %31, %30, %28, %lean_dec.exit15
  %32 = tail call ptr @l_Array_mapMUnsafe_map___at_Lean_Elab_Term_CollectPatternVars_collect_processCtorApp___spec__2(i64 noundef %.val18, i64 noundef %.val, ptr noundef %2, ptr noundef %3, ptr noundef %4, ptr noundef %5, ptr noundef %6, ptr noundef %7, ptr noundef %8, ptr noundef %9, ptr noundef %10)
  ret ptr %32
}